; Function Attrs: mustprogress uwtable
define internal void @_ZN12_GLOBAL__N_19TestR20msEPNS_11TestContextEi(ptr noundef %cxt, i32 %c) #3 personality ptr @__gxx_personality_v0 {
entry:
  %0 = load i32, ptr %cxt, align 8
  %cmp.not8 = icmp eq i32 %0, 0
  br i1 %cmp.not8, label %for.end, label %for.body.lr.ph

for.body.lr.ph:                                   ; preds = %entry
  %mu = getelementptr inbounds i8, ptr %cxt, i64 16
  br label %for.body

for.body:                                         ; preds = %for.body.lr.ph, %_ZN4absl15ReaderMutexLockD2Ev.exit
  %i.09 = phi i32 [ 0, %for.body.lr.ph ], [ %inc, %_ZN4absl15ReaderMutexLockD2Ev.exit ]
  tail call void @_ZN4absl5Mutex10ReaderLockEv(ptr noundef nonnull align 8 dereferenceable(8) %mu)
  invoke void @AbslInternalSleepFor(i64 0, i32 80000000)
          to label %invoke.cont unwind label %lpad

invoke.cont:                                      ; preds = %for.body
  invoke void @_ZNK4absl5Mutex16AssertReaderHeldEv(ptr noundef nonnull align 8 dereferenceable(8) %mu)
          to label %invoke.cont2 unwind label %lpad

invoke.cont2:                                     ; preds = %invoke.cont
  invoke void @_ZN4absl5Mutex12ReaderUnlockEv(ptr noundef nonnull align 8 dereferenceable(8) %mu)
          to label %_ZN4absl15ReaderMutexLockD2Ev.exit unwind label %terminate.lpad.i

terminate.lpad.i:                                 ; preds = %invoke.cont2
  %1 = landingpad { ptr, i32 }
          catch ptr null
  %2 = extractvalue { ptr, i32 } %1, 0
  tail call void @__clang_call_terminate(ptr %2) #38
  unreachable

_ZN4absl15ReaderMutexLockD2Ev.exit:               ; preds = %invoke.cont2
  %inc = add nuw nsw i32 %i.09, 1
  %3 = load i32, ptr %cxt, align 8
  %cmp.not = icmp eq i32 %inc, %3
  br i1 %cmp.not, label %for.end, label %for.body, !llvm.loop !328

lpad:                                             ; preds = %for.body, %invoke.cont
  %4 = landingpad { ptr, i32 }
          cleanup
  invoke void @_ZN4absl5Mutex12ReaderUnlockEv(ptr noundef nonnull align 8 dereferenceable(8) %mu)
          to label %_ZN4absl15ReaderMutexLockD2Ev.exit5 unwind label %terminate.lpad.i4

terminate.lpad.i4:                                ; preds = %lpad
  %5 = landingpad { ptr, i32 }
          catch ptr null
  %6 = extractvalue { ptr, i32 } %5, 0
  tail call void @__clang_call_terminate(ptr %6) #38
  unreachable

_ZN4absl15ReaderMutexLockD2Ev.exit5:              ; preds = %lpad
  resume { ptr, i32 } %4

for.end:                                          ; preds = %_ZN4absl15ReaderMutexLockD2Ev.exit, %entry
  ret void
}